# SymbolsHelper-Confirmed: 0.1.0 amd64
libmpris-qt5.so.1 libmpris-qt5-1 #MINVER#
 _ZN10QByteArrayD1Ev@Base 0.1.0
 _ZN10QByteArrayD2Ev@Base 0.1.0
 (optional=templinst)_ZN10QDBusReplyI11QStringListED1Ev@Base 0.1.0
 (optional=templinst)_ZN10QDBusReplyI11QStringListED2Ev@Base 0.1.0
 _ZN11MprisPlayer10setCanPlayEb@Base 0.1.0
 _ZN11MprisPlayer10setCanQuitEb@Base 0.1.0
 _ZN11MprisPlayer10setCanSeekEb@Base 0.1.0
 _ZN11MprisPlayer10setShuffleEb@Base 0.1.0
 _ZN11MprisPlayer11qt_metacallEN11QMetaObject4CallEiPPv@Base 0.1.0
 _ZN11MprisPlayer11qt_metacastEPKc@Base 0.1.0
 _ZN11MprisPlayer11rateChangedEv@Base 0.1.0
 _ZN11MprisPlayer11setCanPauseEb@Base 0.1.0
 _ZN11MprisPlayer11setCanRaiseEb@Base 0.1.0
 _ZN11MprisPlayer11setIdentityERK7QString@Base 0.1.0
 _ZN11MprisPlayer11setMetadataERK4QMapI7QString8QVariantE@Base 0.1.0
 _ZN11MprisPlayer11setPositionEx@Base 0.1.0
 _ZN11MprisPlayer12setCanGoNextEb@Base 0.1.0
 _ZN11MprisPlayer12typeMetadataERK4QMapI7QString8QVariantE@Base 0.1.0
 _ZN11MprisPlayer13nextRequestedEv@Base 0.1.0
 _ZN11MprisPlayer13playRequestedEv@Base 0.1.0
 _ZN11MprisPlayer13quitRequestedEv@Base 0.1.0
 _ZN11MprisPlayer13rateRequestedEd@Base 0.1.0
 _ZN11MprisPlayer13seekRequestedEx@Base 0.1.0
 _ZN11MprisPlayer13setCanControlEb@Base 0.1.0
 _ZN11MprisPlayer13setFullscreenEb@Base 0.1.0
 _ZN11MprisPlayer13setLoopStatusEN5Mpris10LoopStatusE@Base 0.1.0
 _ZN11MprisPlayer13stopRequestedEv@Base 0.1.0
 _ZN11MprisPlayer13volumeChangedEv@Base 0.1.0
 _ZN11MprisPlayer14canPlayChangedEv@Base 0.1.0
 _ZN11MprisPlayer14canQuitChangedEv@Base 0.1.0
 _ZN11MprisPlayer14canSeekChangedEv@Base 0.1.0
 _ZN11MprisPlayer14pauseRequestedEv@Base 0.1.0
 _ZN11MprisPlayer14raiseRequestedEv@Base 0.1.0
 _ZN11MprisPlayer14setMaximumRateEd@Base 0.1.0
 _ZN11MprisPlayer14setMinimumRateEd@Base 0.1.0
 _ZN11MprisPlayer14setServiceNameERK7QString@Base 0.1.0
 _ZN11MprisPlayer14shuffleChangedEv@Base 0.1.0
 _ZN11MprisPlayer15canPauseChangedEv@Base 0.1.0
 _ZN11MprisPlayer15canRaiseChangedEv@Base 0.1.0
 _ZN11MprisPlayer15identityChangedEv@Base 0.1.0
 _ZN11MprisPlayer15metadataChangedEv@Base 0.1.0
 _ZN11MprisPlayer15positionChangedEv@Base 0.1.0
 _ZN11MprisPlayer15registerServiceEv@Base 0.1.0
 _ZN11MprisPlayer15setDesktopEntryERK7QString@Base 0.1.0
 _ZN11MprisPlayer15setHasTrackListEb@Base 0.1.0
 _ZN11MprisPlayer15volumeRequestedEd@Base 0.1.0
 _ZN11MprisPlayer16canGoNextChangedEv@Base 0.1.0
 _ZN11MprisPlayer16openUriRequestedERK4QUrl@Base 0.1.0
 _ZN11MprisPlayer16setCanGoPreviousEb@Base 0.1.0
 _ZN11MprisPlayer16shuffleRequestedEb@Base 0.1.0
 _ZN11MprisPlayer16staticMetaObjectE@Base 0.1.0
 _ZN11MprisPlayer17canControlChangedEv@Base 0.1.0
 _ZN11MprisPlayer17fullscreenChangedEv@Base 0.1.0
 _ZN11MprisPlayer17loopStatusChangedEv@Base 0.1.0
 _ZN11MprisPlayer17previousRequestedEv@Base 0.1.0
 _ZN11MprisPlayer17setPlaybackStatusEN5Mpris14PlaybackStatusE@Base 0.1.0
 _ZN11MprisPlayer17unregisterServiceEv@Base 0.1.0
 _ZN11MprisPlayer18maximumRateChangedEv@Base 0.1.0
 _ZN11MprisPlayer18minimumRateChangedEv@Base 0.1.0
 _ZN11MprisPlayer18playPauseRequestedEv@Base 0.1.0
 _ZN11MprisPlayer18serviceNameChangedEv@Base 0.1.0
 _ZN11MprisPlayer19desktopEntryChangedEv@Base 0.1.0
 _ZN11MprisPlayer19fullscreenRequestedEb@Base 0.1.0
 _ZN11MprisPlayer19hasTrackListChangedEv@Base 0.1.0
 _ZN11MprisPlayer19loopStatusRequestedEN5Mpris10LoopStatusE@Base 0.1.0
 _ZN11MprisPlayer19setCanSetFullscreenEb@Base 0.1.0
 _ZN11MprisPlayer20canGoPreviousChangedEv@Base 0.1.0
 _ZN11MprisPlayer20setPositionRequestedERK15QDBusObjectPathx@Base 0.1.0
 _ZN11MprisPlayer21playbackStatusChangedEv@Base 0.1.0
 _ZN11MprisPlayer21setSupportedMimeTypesERK11QStringList@Base 0.1.0
 _ZN11MprisPlayer22setSupportedUriSchemesERK11QStringList@Base 0.1.0
 _ZN11MprisPlayer23canSetFullscreenChangedEv@Base 0.1.0
 _ZN11MprisPlayer25supportedMimeTypesChangedEv@Base 0.1.0
 _ZN11MprisPlayer26supportedUriSchemesChangedEv@Base 0.1.0
 _ZN11MprisPlayer6seekedEx@Base 0.1.0
 _ZN11MprisPlayer7setRateEd@Base 0.1.0
 _ZN11MprisPlayer9setVolumeEd@Base 0.1.0
 _ZN11MprisPlayerC1EP7QObject@Base 0.1.0
 _ZN11MprisPlayerC2EP7QObject@Base 0.1.0
 _ZN11MprisPlayerD0Ev@Base 0.1.0
 _ZN11MprisPlayerD1Ev@Base 0.1.0
 _ZN11MprisPlayerD2Ev@Base 0.1.0
 _ZN12MprisManager10setShuffleEb@Base 0.1.0
 _ZN12MprisManager11qt_metacallEN11QMetaObject4CallEiPPv@Base 0.1.0
 _ZN12MprisManager11qt_metacastEPKc@Base 0.1.0
 _ZN12MprisManager11rateChangedEv@Base 0.1.0
 _ZN12MprisManager13setFullscreenEb@Base 0.1.0
 _ZN12MprisManager13setLoopStatusEN5Mpris10LoopStatusE@Base 0.1.0
 _ZN12MprisManager13volumeChangedEv@Base 0.1.0
 _ZN12MprisManager14canPlayChangedEv@Base 0.1.0
 _ZN12MprisManager14canQuitChangedEv@Base 0.1.0
 _ZN12MprisManager14canSeekChangedEv@Base 0.1.0
 _ZN12MprisManager14shuffleChangedEv@Base 0.1.0
 _ZN12MprisManager15canPauseChangedEv@Base 0.1.0
 _ZN12MprisManager15canRaiseChangedEv@Base 0.1.0
 _ZN12MprisManager15identityChangedEv@Base 0.1.0
 _ZN12MprisManager15metadataChangedEv@Base 0.1.0
 _ZN12MprisManager15positionChangedEx@Base 0.1.0
 _ZN12MprisManager16canGoNextChangedEv@Base 0.1.0
 _ZN12MprisManager16setSingleServiceEb@Base 0.1.0
 _ZN12MprisManager16staticMetaObjectE@Base 0.1.0
 _ZN12MprisManager17canControlChangedEv@Base 0.1.0
 _ZN12MprisManager17fullscreenChangedEv@Base 0.1.0
 _ZN12MprisManager17loopStatusChangedEv@Base 0.1.0
 _ZN12MprisManager17onServiceAppearedERK7QString@Base 0.1.0
 _ZN12MprisManager17onServiceVanishedERK7QString@Base 0.1.0
 _ZN12MprisManager17setCurrentServiceERK7QString@Base 0.1.0
 _ZN12MprisManager18maximumRateChangedEv@Base 0.1.0
 _ZN12MprisManager18minimumRateChangedEv@Base 0.1.0
 _ZN12MprisManager18onNameOwnerChangedERK7QStringS2_S2_@Base 0.1.0
 _ZN12MprisManager19availableControllerERK7QString@Base 0.1.0
 _ZN12MprisManager19desktopEntryChangedEv@Base 0.1.0
 _ZN12MprisManager19hasTrackListChangedEv@Base 0.1.0
 _ZN12MprisManager20canGoPreviousChangedEv@Base 0.1.0
 _ZN12MprisManager20setCurrentControllerE14QSharedPointerI15MprisControllerE@Base 0.1.0
 _ZN12MprisManager20singleServiceChangedEv@Base 0.1.0
 _ZN12MprisManager21currentServiceChangedEv@Base 0.1.0
 _ZN12MprisManager21playbackStatusChangedEv@Base 0.1.0
 _ZN12MprisManager23canSetFullscreenChangedEv@Base 0.1.0
 _ZN12MprisManager24availableServicesChangedEv@Base 0.1.0
 _ZN12MprisManager25supportedMimeTypesChangedEv@Base 0.1.0
 _ZN12MprisManager26supportedUriSchemesChangedEv@Base 0.1.0
 _ZN12MprisManager42onAvailableControllerPlaybackStatusChangedERK7QString@Base 0.1.0
 _ZN12MprisManager6seekedEx@Base 0.1.0
 _ZN12MprisManager7setRateEd@Base 0.1.0
 _ZN12MprisManager9setVolumeEd@Base 0.1.0
 _ZN12MprisManagerC1EP7QObject@Base 0.1.0
 _ZN12MprisManagerC2EP7QObject@Base 0.1.0
 _ZN12MprisManagerD0Ev@Base 0.1.0
 _ZN12MprisManagerD1Ev@Base 0.1.0
 _ZN12MprisManagerD2Ev@Base 0.1.0
 _ZN15MprisController10setShuffleEb@Base 0.1.0
 _ZN15MprisController11qt_metacallEN11QMetaObject4CallEiPPv@Base 0.1.0
 _ZN15MprisController11qt_metacastEPKc@Base 0.1.0
 _ZN15MprisController11rateChangedEv@Base 0.1.0
 _ZN15MprisController11setPositionERK7QStringx@Base 0.1.0
 _ZN15MprisController11setPositionEx@Base 0.1.0
 _ZN15MprisController13setFullscreenEb@Base 0.1.0
 _ZN15MprisController13setLoopStatusEN5Mpris10LoopStatusE@Base 0.1.0
 _ZN15MprisController13volumeChangedEv@Base 0.1.0
 _ZN15MprisController14canPlayChangedEv@Base 0.1.0
 _ZN15MprisController14canQuitChangedEv@Base 0.1.0
 _ZN15MprisController14canSeekChangedEv@Base 0.1.0
 _ZN15MprisController14shuffleChangedEv@Base 0.1.0
 _ZN15MprisController15canPauseChangedEv@Base 0.1.0
 _ZN15MprisController15canRaiseChangedEv@Base 0.1.0
 _ZN15MprisController15identityChangedEv@Base 0.1.0
 _ZN15MprisController15metadataChangedEv@Base 0.1.0
 _ZN15MprisController15positionChangedEx@Base 0.1.0
 _ZN15MprisController16canGoNextChangedEv@Base 0.1.0
 _ZN15MprisController16staticMetaObjectE@Base 0.1.0
 _ZN15MprisController17canControlChangedEv@Base 0.1.0
 _ZN15MprisController17fullscreenChangedEv@Base 0.1.0
 _ZN15MprisController17loopStatusChangedEv@Base 0.1.0
 _ZN15MprisController17onPositionChangedEx@Base 0.1.0
 _ZN15MprisController18maximumRateChangedEv@Base 0.1.0
 _ZN15MprisController18minimumRateChangedEv@Base 0.1.0
 _ZN15MprisController19desktopEntryChangedEv@Base 0.1.0
 _ZN15MprisController19hasTrackListChangedEv@Base 0.1.0
 _ZN15MprisController19onCanControlChangedEv@Base 0.1.0
 _ZN15MprisController20canGoPreviousChangedEv@Base 0.1.0
 _ZN15MprisController21onFinishedPendingCallEP23QDBusPendingCallWatcher@Base 0.1.0
 _ZN15MprisController21playbackStatusChangedEv@Base 0.1.0
 _ZN15MprisController23canSetFullscreenChangedEv@Base 0.1.0
 _ZN15MprisController25supportedMimeTypesChangedEv@Base 0.1.0
 _ZN15MprisController26supportedUriSchemesChangedEv@Base 0.1.0
 _ZN15MprisController35onAsyncGetAllRootPropertiesFinishedEv@Base 0.1.0
 _ZN15MprisController37onAsyncGetAllPlayerPropertiesFinishedEv@Base 0.1.0
 _ZN15MprisController4nextEv@Base 0.1.0
 _ZN15MprisController4playEv@Base 0.1.0
 _ZN15MprisController4quitEv@Base 0.1.0
 _ZN15MprisController4seekEx@Base 0.1.0
 _ZN15MprisController4stopEv@Base 0.1.0
 _ZN15MprisController5pauseEv@Base 0.1.0
 _ZN15MprisController5raiseEv@Base 0.1.0
 _ZN15MprisController6seekedEx@Base 0.1.0
 _ZN15MprisController7openUriERK4QUrl@Base 0.1.0
 _ZN15MprisController7setRateEd@Base 0.1.0
 _ZN15MprisController8previousEv@Base 0.1.0
 _ZN15MprisController9playPauseEv@Base 0.1.0
 _ZN15MprisController9setVolumeEd@Base 0.1.0
 _ZN15MprisControllerC1ERK7QStringRK15QDBusConnectionP7QObject@Base 0.1.0
 _ZN15MprisControllerC2ERK7QStringRK15QDBusConnectionP7QObject@Base 0.1.0
 _ZN15MprisControllerD0Ev@Base 0.1.0
 _ZN15MprisControllerD1Ev@Base 0.1.0
 _ZN15MprisControllerD2Ev@Base 0.1.0
 (optional=templinst)_ZN15QtSharedPointer33ExternalRefCountWithCustomDeleterI15MprisControllerNS_13NormalDeleterEE7deleterEPNS_20ExternalRefCountDataE@Base 0.1.0
 _ZN16MprisRootAdaptor11qt_metacallEN11QMetaObject4CallEiPPv@Base 0.1.0
 _ZN16MprisRootAdaptor11qt_metacastEPKc@Base 0.1.0
 _ZN16MprisRootAdaptor13setFullscreenEb@Base 0.1.0
 _ZN16MprisRootAdaptor16staticMetaObjectE@Base 0.1.0
 _ZN16MprisRootAdaptor4QuitEv@Base 0.1.0
 _ZN16MprisRootAdaptor5RaiseEv@Base 0.1.0
 _ZN16MprisRootAdaptorC1EP11MprisPlayer@Base 0.1.0
 _ZN16MprisRootAdaptorC2EP11MprisPlayer@Base 0.1.0
 _ZN16MprisRootAdaptorD0Ev@Base 0.1.0
 _ZN16MprisRootAdaptorD1Ev@Base 0.1.0
 _ZN16MprisRootAdaptorD2Ev@Base 0.1.0
 (optional=templinst)_ZN17QtMetaTypePrivate19IteratorOwnerCommonIN4QMapI7QString8QVariantE14const_iteratorEE5equalEPKPvS9_@Base 0.1.0
 (optional=templinst)_ZN17QtMetaTypePrivate19IteratorOwnerCommonIN4QMapI7QString8QVariantE14const_iteratorEE6assignEPPvPKS7_@Base 0.1.0
 (optional=templinst)_ZN17QtMetaTypePrivate19IteratorOwnerCommonIN4QMapI7QString8QVariantE14const_iteratorEE7destroyEPPv@Base 0.1.0
 (optional=templinst)_ZN17QtMetaTypePrivate19IteratorOwnerCommonIN5QHashI7QString8QVariantE14const_iteratorEE5equalEPKPvS9_@Base 0.1.0
 (optional=templinst)_ZN17QtMetaTypePrivate19IteratorOwnerCommonIN5QHashI7QString8QVariantE14const_iteratorEE6assignEPPvPKS7_@Base 0.1.0
 (optional=templinst)_ZN17QtMetaTypePrivate19IteratorOwnerCommonIN5QHashI7QString8QVariantE14const_iteratorEE7destroyEPPv@Base 0.1.0
 (optional=templinst)_ZN17QtMetaTypePrivate23QMetaTypeFunctionHelperI15QDBusObjectPathLb1EE8DestructEPv@Base 0.1.0
 (optional=templinst)_ZN17QtMetaTypePrivate23QMetaTypeFunctionHelperI15QDBusObjectPathLb1EE9ConstructEPvPKv@Base 0.1.0
 (optional=templinst)_ZN17QtMetaTypePrivate23QMetaTypeFunctionHelperINS_24QAssociativeIterableImplELb1EE8DestructEPv@Base 0.1.0
 (optional=templinst)_ZN17QtMetaTypePrivate23QMetaTypeFunctionHelperINS_24QAssociativeIterableImplELb1EE9ConstructEPvPKv@Base 0.1.0
 (optional=templinst)_ZN17QtMetaTypePrivate24QAssociativeIterableImpl10getKeyImplI4QMapI7QString8QVariantEEENS_11VariantDataEPKPvij@Base 0.1.0
 (optional=templinst)_ZN17QtMetaTypePrivate24QAssociativeIterableImpl10getKeyImplI5QHashI7QString8QVariantEEENS_11VariantDataEPKPvij@Base 0.1.0
 (optional=templinst)_ZN17QtMetaTypePrivate24QAssociativeIterableImpl11advanceImplI4QMapI7QString8QVariantEEEvPPvi@Base 0.1.0
 (optional=templinst)_ZN17QtMetaTypePrivate24QAssociativeIterableImpl11advanceImplI5QHashI7QString8QVariantEEEvPPvi@Base 0.1.0
 (optional=templinst)_ZN17QtMetaTypePrivate24QAssociativeIterableImpl12getValueImplI4QMapI7QString8QVariantEEENS_11VariantDataEPKPvij@Base 0.1.0
 (optional=templinst)_ZN17QtMetaTypePrivate24QAssociativeIterableImpl12getValueImplI5QHashI7QString8QVariantEEENS_11VariantDataEPKPvij@Base 0.1.0
 (optional=templinst)_ZN17QtMetaTypePrivate24QAssociativeIterableImpl7endImplI4QMapI7QString8QVariantEEEvPKvPPv@Base 0.1.0
 (optional=templinst)_ZN17QtMetaTypePrivate24QAssociativeIterableImpl7endImplI5QHashI7QString8QVariantEEEvPKvPPv@Base 0.1.0
 (optional=templinst)_ZN17QtMetaTypePrivate24QAssociativeIterableImpl8findImplI4QMapI7QString8QVariantEEEvPKvS7_PPv@Base 0.1.0
 (optional=templinst)_ZN17QtMetaTypePrivate24QAssociativeIterableImpl8findImplI5QHashI7QString8QVariantEEEvPKvS7_PPv@Base 0.1.0
 (optional=templinst)_ZN17QtMetaTypePrivate24QAssociativeIterableImpl8sizeImplI4QMapI7QString8QVariantEEEiPKv@Base 0.1.0
 (optional=templinst)_ZN17QtMetaTypePrivate24QAssociativeIterableImpl8sizeImplI5QHashI7QString8QVariantEEEiPKv@Base 0.1.0
 (optional=templinst)_ZN17QtMetaTypePrivate24QAssociativeIterableImpl9beginImplI4QMapI7QString8QVariantEEEvPKvPPv@Base 0.1.0
 (optional=templinst)_ZN17QtMetaTypePrivate24QAssociativeIterableImpl9beginImplI5QHashI7QString8QVariantEEEvPKvPPv@Base 0.1.0
 _ZN18MprisPlayerAdaptor10setShuffleEb@Base 0.1.0
 _ZN18MprisPlayerAdaptor11SetPositionERK15QDBusObjectPathx@Base 0.1.0
 _ZN18MprisPlayerAdaptor11qt_metacallEN11QMetaObject4CallEiPPv@Base 0.1.0
 _ZN18MprisPlayerAdaptor11qt_metacastEPKc@Base 0.1.0
 _ZN18MprisPlayerAdaptor13setLoopStatusERK7QString@Base 0.1.0
 _ZN18MprisPlayerAdaptor16staticMetaObjectE@Base 0.1.0
 _ZN18MprisPlayerAdaptor4NextEv@Base 0.1.0
 _ZN18MprisPlayerAdaptor4PlayEv@Base 0.1.0
 _ZN18MprisPlayerAdaptor4SeekEx@Base 0.1.0
 _ZN18MprisPlayerAdaptor4StopEv@Base 0.1.0
 _ZN18MprisPlayerAdaptor5PauseEv@Base 0.1.0
 _ZN18MprisPlayerAdaptor6SeekedEx@Base 0.1.0
 _ZN18MprisPlayerAdaptor7OpenUriERK7QString@Base 0.1.0
 _ZN18MprisPlayerAdaptor7setRateEd@Base 0.1.0
 _ZN18MprisPlayerAdaptor8PreviousEv@Base 0.1.0
 _ZN18MprisPlayerAdaptor9PlayPauseEv@Base 0.1.0
 _ZN18MprisPlayerAdaptor9setVolumeEd@Base 0.1.0
 _ZN18MprisPlayerAdaptorC1EP11MprisPlayer@Base 0.1.0
 _ZN18MprisPlayerAdaptorC2EP11MprisPlayer@Base 0.1.0
 _ZN18MprisPlayerAdaptorD0Ev@Base 0.1.0
 _ZN18MprisPlayerAdaptorD1Ev@Base 0.1.0
 _ZN18MprisPlayerAdaptorD2Ev@Base 0.1.0
 _ZN18MprisRootInterface11qt_metacallEN11QMetaObject4CallEiPPv@Base 0.1.0
 _ZN18MprisRootInterface11qt_metacastEPKc@Base 0.1.0
 _ZN18MprisRootInterface14canQuitChangedEb@Base 0.1.0
 _ZN18MprisRootInterface15canRaiseChangedEb@Base 0.1.0
 _ZN18MprisRootInterface15identityChangedERK7QString@Base 0.1.0
 _ZN18MprisRootInterface16staticMetaObjectE@Base 0.1.0
 _ZN18MprisRootInterface17fullscreenChangedEb@Base 0.1.0
 _ZN18MprisRootInterface17onPropertyChangedERK7QStringRK8QVariant@Base 0.1.0
 _ZN18MprisRootInterface19desktopEntryChangedERK7QString@Base 0.1.0
 _ZN18MprisRootInterface19hasTrackListChangedEb@Base 0.1.0
 _ZN18MprisRootInterface23canSetFullscreenChangedEb@Base 0.1.0
 _ZN18MprisRootInterface25supportedMimeTypesChangedERK11QStringList@Base 0.1.0
 _ZN18MprisRootInterface26supportedUriSchemesChangedERK11QStringList@Base 0.1.0
 _ZN18MprisRootInterfaceC1ERK7QStringS2_RK15QDBusConnectionP7QObject@Base 0.1.0
 _ZN18MprisRootInterfaceC2ERK7QStringS2_RK15QDBusConnectionP7QObject@Base 0.1.0
 _ZN18MprisRootInterfaceD0Ev@Base 0.1.0
 _ZN18MprisRootInterfaceD1Ev@Base 0.1.0
 _ZN18MprisRootInterfaceD2Ev@Base 0.1.0
 _ZN20MprisPlayerInterface11qt_metacallEN11QMetaObject4CallEiPPv@Base 0.1.0
 _ZN20MprisPlayerInterface11qt_metacastEPKc@Base 0.1.0
 _ZN20MprisPlayerInterface11rateChangedEd@Base 0.1.0
 _ZN20MprisPlayerInterface13volumeChangedEd@Base 0.1.0
 _ZN20MprisPlayerInterface14canPlayChangedEb@Base 0.1.0
 _ZN20MprisPlayerInterface14canSeekChangedEb@Base 0.1.0
 _ZN20MprisPlayerInterface14shuffleChangedEb@Base 0.1.0
 _ZN20MprisPlayerInterface15canPauseChangedEb@Base 0.1.0
 _ZN20MprisPlayerInterface15metadataChangedERK4QMapI7QString8QVariantE@Base 0.1.0
 _ZN20MprisPlayerInterface15positionChangedEx@Base 0.1.0
 _ZN20MprisPlayerInterface16canGoNextChangedEb@Base 0.1.0
 _ZN20MprisPlayerInterface16staticMetaObjectE@Base 0.1.0
 _ZN20MprisPlayerInterface17canControlChangedEb@Base 0.1.0
 _ZN20MprisPlayerInterface17loopStatusChangedERK7QString@Base 0.1.0
 _ZN20MprisPlayerInterface17onPropertyChangedERK7QStringRK8QVariant@Base 0.1.0
 _ZN20MprisPlayerInterface18maximumRateChangedEd@Base 0.1.0
 _ZN20MprisPlayerInterface18minimumRateChangedEd@Base 0.1.0
 _ZN20MprisPlayerInterface20canGoPreviousChangedEb@Base 0.1.0
 _ZN20MprisPlayerInterface21playbackStatusChangedERK7QString@Base 0.1.0
 _ZN20MprisPlayerInterface6seekedEx@Base 0.1.0
 _ZN20MprisPlayerInterfaceC1ERK7QStringS2_RK15QDBusConnectionP7QObject@Base 0.1.0
 _ZN20MprisPlayerInterfaceC2ERK7QStringS2_RK15QDBusConnectionP7QObject@Base 0.1.0
 _ZN20MprisPlayerInterfaceD0Ev@Base 0.1.0
 _ZN20MprisPlayerInterfaceD1Ev@Base 0.1.0
 _ZN20MprisPlayerInterfaceD2Ev@Base 0.1.0
 (optional=templinst)_ZN4QMapI7QString8QVariantE13detach_helperEv@Base 0.1.0
 (optional=templinst)_ZN4QMapI7QString8QVariantEC1ERKS2_@Base 0.1.0
 (optional=templinst)_ZN4QMapI7QString8QVariantEC2ERKS2_@Base 0.1.0
 (optional=templinst)_ZN4QMapI7QString8QVariantED1Ev@Base 0.1.0
 (optional=templinst)_ZN4QMapI7QString8QVariantED2Ev@Base 0.1.0
 _ZN5Mpris11api_factoryEP10QQmlEngineP9QJSEngine@Base 0.1.0
 _ZN5Mpris11qt_metacallEN11QMetaObject4CallEiPPv@Base 0.1.0
 _ZN5Mpris11qt_metacastEPKc@Base 0.1.0
 _ZN5Mpris16metadataToStringENS_8MetadataE@Base 0.1.0
 _ZN5Mpris16staticMetaObjectE@Base 0.1.0
 (optional=templinst)_ZN5Mpris19enumerationToStringINS_10LoopStatusEEE7QStringT_@Base 0.1.0
 (optional=templinst)_ZN5Mpris19enumerationToStringINS_14PlaybackStatusEEE7QStringT_@Base 0.1.0
 (optional=templinst)_ZN5Mpris19enumerationToStringINS_8MetadataEEE7QStringT_@Base 0.1.0
 (optional=templinst)_ZN5Mpris21enumerationFromStringINS_10LoopStatusEEET_RK7QString@Base 0.1.0
 (optional=templinst)_ZN5Mpris21enumerationFromStringINS_14PlaybackStatusEEET_RK7QString@Base 0.1.0
 (optional=templinst)_ZN5Mpris21enumerationFromStringINS_8MetadataEEET_RK7QString@Base 0.1.0
 (optional=templinst)_ZN5Mpris21getEnumStringsAndSizeINS_10LoopStatusEEEvPPPKcPi@Base 0.1.0
 (optional=templinst)_ZN5Mpris21getEnumStringsAndSizeINS_14PlaybackStatusEEEvPPPKcPi@Base 0.1.0
 (optional=templinst)_ZN5Mpris21getEnumStringsAndSizeINS_8MetadataEEEvPPPKcPi@Base 0.1.0
 _ZN5MprisC1EP7QObject@Base 0.1.0
 _ZN5MprisC2EP7QObject@Base 0.1.0
 _ZN5MprisD0Ev@Base 0.1.0
 _ZN5MprisD1Ev@Base 0.1.0
 _ZN5MprisD2Ev@Base 0.1.0
 (optional=templinst)_ZN5QListI14QSharedPointerI15MprisControllerEE13detach_helperEi@Base 0.1.0
 (optional=templinst)_ZN5QListI14QSharedPointerI15MprisControllerEE18detach_helper_growEii@Base 0.1.0
 (optional=templinst)_ZN5QListI14QSharedPointerI15MprisControllerEE9removeOneERKS2_@Base 0.1.0
 (optional=templinst)_ZN5QListI14QSharedPointerI15MprisControllerEED1Ev@Base 0.1.0
 (optional=templinst)_ZN5QListI14QSharedPointerI15MprisControllerEED2Ev@Base 0.1.0
 (optional=templinst)_ZN5QListI7QStringE18detach_helper_growEii@Base 0.1.0
 (optional=templinst)_ZN5QListI7QStringE6appendERKS0_@Base 0.1.0
 (optional=templinst)_ZN5QListI7QStringEC1ERKS1_@Base 0.1.0
 (optional=templinst)_ZN5QListI7QStringEC2ERKS1_@Base 0.1.0
 (optional=templinst)_ZN5QListI7QStringED1Ev@Base 0.1.0
 (optional=templinst)_ZN5QListI7QStringED2Ev@Base 0.1.0
 (optional=templinst)_ZN5QListI8QVariantE18detach_helper_growEii@Base 0.1.0
 (optional=templinst)_ZN5QListI8QVariantE6appendERKS0_@Base 0.1.0
 (optional=templinst)_ZN5QListI8QVariantED1Ev@Base 0.1.0
 (optional=templinst)_ZN5QListI8QVariantED2Ev@Base 0.1.0
 _ZN6QDebuglsEPKc@Base 0.1.0
 _ZN7QStringD1Ev@Base 0.1.0
 _ZN7QStringD2Ev@Base 0.1.0
 (optional=templinst)_ZN8QMapDataI7QString8QVariantE10createNodeERKS0_RKS1_P8QMapNodeIS0_S1_Eb@Base 0.1.0
 (optional=templinst)_ZN8QMapDataI7QString8QVariantE7destroyEv@Base 0.1.0
 (optional=templinst)_ZN8QMapNodeI7QString8QVariantE14destroySubTreeEv@Base 0.1.0
 (optional=templinst)_ZN9QtPrivate11QSlotObjectIM12MprisManagerFvvENS_4ListIJEEEvE4implEiPNS_15QSlotObjectBaseEP7QObjectPPvPb@Base 0.1.0
 (optional=templinst)_ZN9QtPrivate11QSlotObjectIM12MprisManagerFvxENS_4ListIJxEEEvE4implEiPNS_15QSlotObjectBaseEP7QObjectPPvPb@Base 0.1.0
 (optional=templinst)_ZN9QtPrivate11QSlotObjectIM15MprisControllerFvvENS_4ListIJEEEvE4implEiPNS_15QSlotObjectBaseEP7QObjectPPvPb@Base 0.1.0
 (optional=templinst)_ZN9QtPrivate11QSlotObjectIM15MprisControllerFvxENS_4ListIJxEEEvE4implEiPNS_15QSlotObjectBaseEP7QObjectPPvPb@Base 0.1.0
 (optional=templinst)_ZN9QtPrivate28QVariantValueHelperInterfaceI4QMapI7QString8QVariantEE6invokeERKS3_@Base 0.1.0
 _ZNK11MprisPlayer10canControlEv@Base 0.1.0
 _ZNK11MprisPlayer10fullscreenEv@Base 0.1.0
 _ZNK11MprisPlayer10loopStatusEv@Base 0.1.0
 _ZNK11MprisPlayer10metaObjectEv@Base 0.1.0
 _ZNK11MprisPlayer11maximumRateEv@Base 0.1.0
 _ZNK11MprisPlayer11minimumRateEv@Base 0.1.0
 _ZNK11MprisPlayer11serviceNameEv@Base 0.1.0
 _ZNK11MprisPlayer12desktopEntryEv@Base 0.1.0
 _ZNK11MprisPlayer12hasTrackListEv@Base 0.1.0
 _ZNK11MprisPlayer13canGoPreviousEv@Base 0.1.0
 _ZNK11MprisPlayer14playbackStatusEv@Base 0.1.0
 _ZNK11MprisPlayer16canSetFullscreenEv@Base 0.1.0
 _ZNK11MprisPlayer18supportedMimeTypesEv@Base 0.1.0
 _ZNK11MprisPlayer19supportedUriSchemesEv@Base 0.1.0
 _ZNK11MprisPlayer23notifyPropertiesChangedERK7QStringRK4QMapIS0_8QVariantERK11QStringList@Base 0.1.0
 _ZNK11MprisPlayer4rateEv@Base 0.1.0
 _ZNK11MprisPlayer6volumeEv@Base 0.1.0
 _ZNK11MprisPlayer7canPlayEv@Base 0.1.0
 _ZNK11MprisPlayer7canQuitEv@Base 0.1.0
 _ZNK11MprisPlayer7canSeekEv@Base 0.1.0
 _ZNK11MprisPlayer7shuffleEv@Base 0.1.0
 _ZNK11MprisPlayer8canPauseEv@Base 0.1.0
 _ZNK11MprisPlayer8canRaiseEv@Base 0.1.0
 _ZNK11MprisPlayer8identityEv@Base 0.1.0
 _ZNK11MprisPlayer8metadataEv@Base 0.1.0
 _ZNK11MprisPlayer8positionEv@Base 0.1.0
 _ZNK11MprisPlayer9canGoNextEv@Base 0.1.0
 _ZNK12MprisManager10canControlEv@Base 0.1.0
 _ZNK12MprisManager10fullscreenEv@Base 0.1.0
 _ZNK12MprisManager10loopStatusEv@Base 0.1.0
 _ZNK12MprisManager10metaObjectEv@Base 0.1.0
 _ZNK12MprisManager11maximumRateEv@Base 0.1.0
 _ZNK12MprisManager11minimumRateEv@Base 0.1.0
 _ZNK12MprisManager11setPositionERK7QStringx@Base 0.1.0
 _ZNK12MprisManager11setPositionEx@Base 0.1.0
 _ZNK12MprisManager12desktopEntryEv@Base 0.1.0
 _ZNK12MprisManager12hasTrackListEv@Base 0.1.0
 _ZNK12MprisManager13canGoPreviousEv@Base 0.1.0
 _ZNK12MprisManager13singleServiceEv@Base 0.1.0
 _ZNK12MprisManager14currentServiceEv@Base 0.1.0
 _ZNK12MprisManager14playbackStatusEv@Base 0.1.0
 _ZNK12MprisManager15checkControllerEPKc@Base 0.1.0
 _ZNK12MprisManager15requestPositionEv@Base 0.1.0
 _ZNK12MprisManager16canSetFullscreenEv@Base 0.1.0
 _ZNK12MprisManager17availableServicesEv@Base 0.1.0
 _ZNK12MprisManager18supportedMimeTypesEv@Base 0.1.0
 _ZNK12MprisManager19supportedUriSchemesEv@Base 0.1.0
 _ZNK12MprisManager4nextEv@Base 0.1.0
 _ZNK12MprisManager4playEv@Base 0.1.0
 _ZNK12MprisManager4quitEv@Base 0.1.0
 _ZNK12MprisManager4rateEv@Base 0.1.0
 _ZNK12MprisManager4seekEx@Base 0.1.0
 _ZNK12MprisManager4stopEv@Base 0.1.0
 _ZNK12MprisManager5pauseEv@Base 0.1.0
 _ZNK12MprisManager5raiseEv@Base 0.1.0
 _ZNK12MprisManager6volumeEv@Base 0.1.0
 _ZNK12MprisManager7canPlayEv@Base 0.1.0
 _ZNK12MprisManager7canQuitEv@Base 0.1.0
 _ZNK12MprisManager7canSeekEv@Base 0.1.0
 _ZNK12MprisManager7openUriERK4QUrl@Base 0.1.0
 _ZNK12MprisManager7shuffleEv@Base 0.1.0
 _ZNK12MprisManager8canPauseEv@Base 0.1.0
 _ZNK12MprisManager8canRaiseEv@Base 0.1.0
 _ZNK12MprisManager8identityEv@Base 0.1.0
 _ZNK12MprisManager8metadataEv@Base 0.1.0
 _ZNK12MprisManager8positionEv@Base 0.1.0
 _ZNK12MprisManager8previousEv@Base 0.1.0
 _ZNK12MprisManager9canGoNextEv@Base 0.1.0
 _ZNK12MprisManager9playPauseEv@Base 0.1.0
 _ZNK15MprisController10canControlEv@Base 0.1.0
 _ZNK15MprisController10fullscreenEv@Base 0.1.0
 _ZNK15MprisController10loopStatusEv@Base 0.1.0
 _ZNK15MprisController10metaObjectEv@Base 0.1.0
 _ZNK15MprisController11maximumRateEv@Base 0.1.0
 _ZNK15MprisController11minimumRateEv@Base 0.1.0
 _ZNK15MprisController12desktopEntryEv@Base 0.1.0
 _ZNK15MprisController12hasTrackListEv@Base 0.1.0
 _ZNK15MprisController13canGoPreviousEv@Base 0.1.0
 _ZNK15MprisController14playbackStatusEv@Base 0.1.0
 _ZNK15MprisController15requestPositionEv@Base 0.1.0
 _ZNK15MprisController16canSetFullscreenEv@Base 0.1.0
 _ZNK15MprisController18supportedMimeTypesEv@Base 0.1.0
 _ZNK15MprisController19supportedUriSchemesEv@Base 0.1.0
 _ZNK15MprisController4rateEv@Base 0.1.0
 _ZNK15MprisController6volumeEv@Base 0.1.0
 _ZNK15MprisController7canPlayEv@Base 0.1.0
 _ZNK15MprisController7canQuitEv@Base 0.1.0
 _ZNK15MprisController7canSeekEv@Base 0.1.0
 _ZNK15MprisController7isValidEv@Base 0.1.0
 _ZNK15MprisController7serviceEv@Base 0.1.0
 _ZNK15MprisController7shuffleEv@Base 0.1.0
 _ZNK15MprisController8canPauseEv@Base 0.1.0
 _ZNK15MprisController8canRaiseEv@Base 0.1.0
 _ZNK15MprisController8identityEv@Base 0.1.0
 _ZNK15MprisController8metadataEv@Base 0.1.0
 _ZNK15MprisController8positionEv@Base 0.1.0
 _ZNK15MprisController9canGoNextEv@Base 0.1.0
 _ZNK16MprisRootAdaptor10fullscreenEv@Base 0.1.0
 _ZNK16MprisRootAdaptor10metaObjectEv@Base 0.1.0
 _ZNK16MprisRootAdaptor12desktopEntryEv@Base 0.1.0
 _ZNK16MprisRootAdaptor12hasTrackListEv@Base 0.1.0
 _ZNK16MprisRootAdaptor16canSetFullscreenEv@Base 0.1.0
 _ZNK16MprisRootAdaptor16onCanQuitChangedEv@Base 0.1.0
 _ZNK16MprisRootAdaptor17onCanRaiseChangedEv@Base 0.1.0
 _ZNK16MprisRootAdaptor17onIdentityChangedEv@Base 0.1.0
 _ZNK16MprisRootAdaptor18supportedMimeTypesEv@Base 0.1.0
 _ZNK16MprisRootAdaptor19onFullscreenChangedEv@Base 0.1.0
 _ZNK16MprisRootAdaptor19supportedUriSchemesEv@Base 0.1.0
 _ZNK16MprisRootAdaptor21onDesktopEntryChangedEv@Base 0.1.0
 _ZNK16MprisRootAdaptor21onHasTrackListChangedEv@Base 0.1.0
 _ZNK16MprisRootAdaptor25onCanSetFullscreenChangedEv@Base 0.1.0
 _ZNK16MprisRootAdaptor27onSupportedMimeTypesChangedEv@Base 0.1.0
 _ZNK16MprisRootAdaptor28onSupportedUriSchemesChangedEv@Base 0.1.0
 _ZNK16MprisRootAdaptor7canQuitEv@Base 0.1.0
 _ZNK16MprisRootAdaptor8canRaiseEv@Base 0.1.0
 _ZNK16MprisRootAdaptor8identityEv@Base 0.1.0
 _ZNK18MprisPlayerAdaptor10canControlEv@Base 0.1.0
 _ZNK18MprisPlayerAdaptor10loopStatusEv@Base 0.1.0
 _ZNK18MprisPlayerAdaptor10metaObjectEv@Base 0.1.0
 _ZNK18MprisPlayerAdaptor11maximumRateEv@Base 0.1.0
 _ZNK18MprisPlayerAdaptor11minimumRateEv@Base 0.1.0
 _ZNK18MprisPlayerAdaptor13canGoPreviousEv@Base 0.1.0
 _ZNK18MprisPlayerAdaptor13onRateChangedEv@Base 0.1.0
 _ZNK18MprisPlayerAdaptor14playbackStatusEv@Base 0.1.0
 _ZNK18MprisPlayerAdaptor15onVolumeChangedEv@Base 0.1.0
 _ZNK18MprisPlayerAdaptor16onCanPlayChangedEv@Base 0.1.0
 _ZNK18MprisPlayerAdaptor16onCanSeekChangedEv@Base 0.1.0
 _ZNK18MprisPlayerAdaptor16onShuffleChangedEv@Base 0.1.0
 _ZNK18MprisPlayerAdaptor17onCanPauseChangedEv@Base 0.1.0
 _ZNK18MprisPlayerAdaptor17onMetadataChangedEv@Base 0.1.0
 _ZNK18MprisPlayerAdaptor18onCanGoNextChangedEv@Base 0.1.0
 _ZNK18MprisPlayerAdaptor19onCanControlChangedEv@Base 0.1.0
 _ZNK18MprisPlayerAdaptor19onLoopStatusChangedEv@Base 0.1.0
 _ZNK18MprisPlayerAdaptor20onMaximumRateChangedEv@Base 0.1.0
 _ZNK18MprisPlayerAdaptor20onMinimumRateChangedEv@Base 0.1.0
 _ZNK18MprisPlayerAdaptor22onCanGoPreviousChangedEv@Base 0.1.0
 _ZNK18MprisPlayerAdaptor23onPlaybackStatusChangedEv@Base 0.1.0
 _ZNK18MprisPlayerAdaptor4rateEv@Base 0.1.0
 _ZNK18MprisPlayerAdaptor6volumeEv@Base 0.1.0
 _ZNK18MprisPlayerAdaptor7canPlayEv@Base 0.1.0
 _ZNK18MprisPlayerAdaptor7canSeekEv@Base 0.1.0
 _ZNK18MprisPlayerAdaptor7shuffleEv@Base 0.1.0
 _ZNK18MprisPlayerAdaptor8canPauseEv@Base 0.1.0
 _ZNK18MprisPlayerAdaptor8metadataEv@Base 0.1.0
 _ZNK18MprisPlayerAdaptor8positionEv@Base 0.1.0
 _ZNK18MprisPlayerAdaptor9canGoNextEv@Base 0.1.0
 _ZNK18MprisRootInterface10metaObjectEv@Base 0.1.0
 _ZNK20MprisPlayerInterface10metaObjectEv@Base 0.1.0
 (optional=templinst)_ZNK4QMapI7QString8QVariantEeqERKS2_@Base 0.1.0
 _ZNK5Mpris10metaObjectEv@Base 0.1.0
 (optional=templinst)_ZNK5QListI14QSharedPointerI15MprisControllerEE7indexOfERKS2_i@Base 0.1.0
 (optional=templinst)_ZNK5QListI7QStringEeqERKS1_@Base 0.1.0
 (optional=templinst)_ZNK8QMapDataI7QString8QVariantE8findNodeERKS0_@Base 0.1.0
 (optional=templinst)_ZNK8QMapNodeI7QString8QVariantE4copyEP8QMapDataIS0_S1_E@Base 0.1.0
 _ZTI11MprisPlayer@Base 0.1.0
 _ZTI12MprisManager@Base 0.1.0
 _ZTI12QDBusContext@Base 0.1.0
 _ZTI15MprisController@Base 0.1.0
 _ZTI16MprisRootAdaptor@Base 0.1.0
 _ZTI18MprisPlayerAdaptor@Base 0.1.0
 _ZTI18MprisRootInterface@Base 0.1.0
 _ZTI20MprisPlayerInterface@Base 0.1.0
 _ZTI5Mpris@Base 0.1.0
 _ZTS11MprisPlayer@Base 0.1.0
 _ZTS12MprisManager@Base 0.1.0
 _ZTS12QDBusContext@Base 0.1.0
 _ZTS15MprisController@Base 0.1.0
 _ZTS16MprisRootAdaptor@Base 0.1.0
 _ZTS18MprisPlayerAdaptor@Base 0.1.0
 _ZTS18MprisRootInterface@Base 0.1.0
 _ZTS20MprisPlayerInterface@Base 0.1.0
 _ZTS5Mpris@Base 0.1.0
 _ZTV11MprisPlayer@Base 0.1.0
 _ZTV12MprisManager@Base 0.1.0
 _ZTV15MprisController@Base 0.1.0
 _ZTV16MprisRootAdaptor@Base 0.1.0
 _ZTV18MprisPlayerAdaptor@Base 0.1.0
 _ZTV18MprisRootInterface@Base 0.1.0
 _ZTV20MprisPlayerInterface@Base 0.1.0
 _ZTV5Mpris@Base 0.1.0
 (optional=templinst)_ZZN11QMetaTypeIdI15QDBusObjectPathE14qt_metatype_idEvE11metatype_id@Base 0.1.0
 (optional=templinst)_ZZN11QMetaTypeIdIN17QtMetaTypePrivate24QAssociativeIterableImplEE14qt_metatype_idEvE11metatype_id@Base 0.1.0
